ccopy_reg
_reconstructor
p0
(csklearn.grid_search
GridSearchCV
p1
c__builtin__
object
p2
Ntp3
Rp4
(dp5
S'scoring'
p6
NsS'n_jobs'
p7
I4
sS'verbose'
p8
I0
sS'fit_params'
p9
(dp10
sS'loss_func'
p11
NsS'refit'
p12
I01
sS'scorer_'
p13
csklearn.metrics.scorer
_passthrough_scorer
p14
sS'cv'
p15
NsS'iid'
p16
I01
sS'estimator'
p17
g0
(csklearn.pipeline
Pipeline
p18
g2
Ntp19
Rp20
(dp21
S'steps'
p22
(lp23
(S'vect'
p24
g0
(csklearn.feature_extraction.text
CountVectorizer
p25
g2
Ntp26
Rp27
(dp28
S'decode_error'
p29
Vstrict
p30
sS'lowercase'
p31
I01
sS'stop_words'
p32
NsS'vocabulary'
p33
NsS'tokenizer'
p34
NsS'encoding'
p35
Vutf-8
p36
sS'token_pattern'
p37
V(?u)\u005cb\u005cw\u005cw+\u005cb
p38
sS'max_df'
p39
F1.0
sS'analyzer'
p40
c__main__
analyzer
p41
sS'binary'
p42
I00
sS'ngram_range'
p43
(I1
I1
tp44
sS'preprocessor'
p45
NsS'min_df'
p46
I1
sS'max_features'
p47
NsS'input'
p48
Vcontent
p49
sS'dtype'
p50
cnumpy
int64
p51
sS'strip_accents'
p52
Nsbtp53
a(S'tfidf'
p54
g0
(csklearn.feature_extraction.text
TfidfTransformer
p55
g2
Ntp56
Rp57
(dp58
S'use_idf'
p59
I01
sS'smooth_idf'
p60
I01
sS'sublinear_tf'
p61
I00
sS'norm'
p62
Vl2
p63
sbtp64
a(S'clf'
p65
g0
(csklearn.naive_bayes
MultinomialNB
p66
g2
Ntp67
Rp68
(dp69
S'alpha'
p70
F1.0
sS'fit_prior'
p71
I01
sS'class_prior'
p72
(lp73
F0.598
aF0.402
asbtp74
asS'named_steps'
p75
(dp76
g54
g57
sg24
g27
sg65
g68
ssbsS'best_estimator_'
p77
g0
(g18
g2
Ntp78
Rp79
(dp80
g22
(lp81
(g24
g0
(g25
g2
Ntp82
Rp83
(dp84
g29
g30
sg31
I01
sg32
Nsg33
Nsg34
Nsg35
g36
sg37
V(?u)\u005cb\u005cw\u005cw+\u005cb
p85
sg39
F1.0
sS'fixed_vocabulary_'
p86
I00
sg40
g41
sS'vocabulary_'
p87
(dp88
S'ADV'
p89
cnumpy.core.multiarray
scalar
p90
(cnumpy
dtype
p91
(S'i8'
p92
I0
I1
tp93
Rp94
(I3
S'<'
p95
NNNI-1
I-1
I0
tp96
bS'\x03\x00\x00\x00\x00\x00\x00\x00'
p97
tp98
Rp99
sS'NOUN'
p100
g90
(g94
S'\x06\x00\x00\x00\x00\x00\x00\x00'
p101
tp102
Rp103
sS'NUM'
p104
g90
(g94
S'\x07\x00\x00\x00\x00\x00\x00\x00'
p105
tp106
Rp107
sS'ADP'
p108
g90
(g94
S'\x02\x00\x00\x00\x00\x00\x00\x00'
p109
tp110
Rp111
sS'PRON'
p112
g90
(g94
S'\x08\x00\x00\x00\x00\x00\x00\x00'
p113
tp114
Rp115
sS'DET'
p116
g90
(g94
S'\x05\x00\x00\x00\x00\x00\x00\x00'
p117
tp118
Rp119
sS'.'
p120
g90
(g94
S'\x00\x00\x00\x00\x00\x00\x00\x00'
p121
tp122
Rp123
sS'PRT'
p124
g90
(g94
S'\t\x00\x00\x00\x00\x00\x00\x00'
p125
tp126
Rp127
sS'VERB'
p128
g90
(g94
S'\n\x00\x00\x00\x00\x00\x00\x00'
p129
tp130
Rp131
sS'X'
p132
g90
(g94
S'\x0b\x00\x00\x00\x00\x00\x00\x00'
p133
tp134
Rp135
sS'CONJ'
p136
g90
(g94
S'\x04\x00\x00\x00\x00\x00\x00\x00'
p137
tp138
Rp139
sS'ADJ'
p140
g90
(g94
S'\x01\x00\x00\x00\x00\x00\x00\x00'
p141
tp142
Rp143
ssg42
I00
sg43
(I1
I1
tp144
sg45
Nsg46
I1
sg47
Nsg48
g49
sg50
g51
sS'stop_words_'
p145
c__builtin__
set
p146
((lp147
tp148
Rp149
sg52
Nsbtp150
a(g54
g0
(g55
g2
Ntp151
Rp152
(dp153
g59
I01
sg60
I01
sg61
I00
sg62
g63
sS'_idf_diag'
p154
g0
(cscipy.sparse.dia
dia_matrix
p155
g2
Ntp156
Rp157
(dp158
S'data'
p159
cnumpy.core.multiarray
_reconstruct
p160
(cnumpy
ndarray
p161
(I0
tp162
S'b'
p163
tp164
Rp165
(I1
(I1
I12
tp166
g91
(S'f8'
p167
I0
I1
tp168
Rp169
(I3
S'<'
p170
NNNI-1
I-1
I0
tp171
bI00
S"\x00\x00\x00\x00\x00\x00\xf0?\x96\t'\xe5\x17t\xf4?\xa5<t\xae\x9f\xd0\xf1?X\x92\xb3\xd1}\x88\xf4?J\xa6\x84\xbf\xf7U\xf9?\xccO(\xa9\xeb?\xf2?\x8bLb\xc2\xfb\x1d\xf0?\xa8\xf3\xc5\xc9\x87\xfd\x07@\xbd\x19\x0e\xde*\x14\xf3?\x13\xeeR\xae\xd3p\xf9?@@\xd0y\x00.\xf0?\x04\xfa\x8f:\xa2\x8d\x15@"
p172
tp173
bsS'maxprint'
p174
I50
sS'_shape'
p175
(I12
I12
tp176
sS'offsets'
p177
g160
(g161
(I0
tp178
g163
tp179
Rp180
(I1
(I1
tp181
g91
(S'i4'
p182
I0
I1
tp183
Rp184
(I3
S'<'
p185
NNNI-1
I-1
I0
tp186
bI00
S'\x00\x00\x00\x00'
p187
tp188
bsS'format'
p189
S'dia'
p190
sbsbtp191
a(g65
g0
(g66
g2
Ntp192
Rp193
(dp194
S'class_log_prior_'
p195
g160
(g161
(I0
tp196
g163
tp197
Rp198
(I1
(I2
tp199
g169
I00
S'\x0f\xc2x)\tt\xe0\xbf\x923\xebNe)\xed\xbf'
p200
tp201
bsS'feature_log_prob_'
p202
g160
(g161
(I0
tp203
g163
tp204
Rp205
(I1
(I2
I12
tp206
g169
I00
S'\xca76z\x9e\xd3\x02\xc0\xfc\xd12(\tY\x05\xc0\x9cn\xdf\xe2\x12\xbd\x02\xc0\x9a\xc6,\x1cD\xe3\x04\xc0\x9c\xeb\xfd\xdc\xf2R\t\xc0&l\xde\xe6P(\x03\xc0lR\x88\xe9\x03\x18\xfb\xbfc\xf6\x07\x0bW\xc5\x10\xc0\xda\xbc\xf2,\xa8\x98\x01\xc0\xd8^\xe1\xc1u5\x08\xc0\xe0\x94z\xfa\xf8\x1c\xfc\xbf\xa9\x801\xa5\ny\x19\xc0B;\xcb\xa05\xf7\x02\xc0\x16M\x1b\xef\xc2\xf9\x04\xc0\x18\xf6\xd7\xc0\xd1\x10\x02\xc0,\x03^\x84\x1c/\x05\xc0\x0e@\x11K\xcap\t\xc0\xd6\x7f\x15Y\xb6\xac\x02\xc0\xe4\xc8w\x1b\xdb<\xfa\xbfO\xad\xf2=zv\x10\xc0x\xe1\xdb\x94=\xc3\x02\xc0"\xcb\x9c\xab*\xab\x08\xc0h\xd7\x06 K\xb3\xfc\xbf\x8bb\xa0\xfb\xd7\x1e\x19\xc0'
p207
tp208
bsS'feature_count_'
p209
g160
(g161
(I0
tp210
g163
tp211
Rp212
(I1
(I2
I12
tp213
g169
I00
S',\xfc\xbb\\\xcf\x11\x91@\x06\x9e\xddH\'\xe9\x88@_\x9b\xc27.B\x91@\x13\xd2\x05z\x9eb\x8a@\xd0t\xa3\xb0\xe7N~@\x8a\xaa\xa9=\xc7`\x90@\xa6\xde2%2\x83\xa0@\xadQ\x84\x16n\xb3e@\x17\x02\xf1\x11F\xe8\x93@\x84\xf8*\x1f\xc0k\x81@o\x10\xe7E\x8f\xfc\x9e@$Iu&\xaa\xb63@\xf1"\x8f\xca\x95\xc5\x8f@h>G\xdc\x8d\xb6\x88@\x9d\x1a\x84G\x03\xc7\x91@\x07_s|\xe0\x13\x88@\x9b\xfa\x0c\xa1,I|@YM\x9b\xaery\x90@)\x0b*\x00\r\x7f\xa0@~\xf8\xf9\xea\xff1f@\x9b\xd3\xcfKOK\x90@d|\x8e\xde\xbd&\x7f@\xdf\\\x1b\x0f8I\x9c@\x96~\xb83\x19c4@'
p214
tp215
bsS'classes_'
p216
g160
(g161
(I0
tp217
g163
tp218
Rp219
(I1
(I2
tp220
g94
I00
S'\x00\x00\x00\x00\x00\x00\x00\x00\x01\x00\x00\x00\x00\x00\x00\x00'
p221
tp222
bsg71
I01
sg72
(lp223
F0.598
aF0.402
asS'class_count_'
p224
g160
(g161
(I0
tp225
g163
tp226
Rp227
(I1
(I2
tp228
g169
I00
S'\x00\x00\x00\x00\x00\x92\xb1@\x00\x00\x00\x00\x00\xb4\xb0@'
p229
tp230
bsg70
F0.0
sbtp231
asg75
(dp232
g54
g152
sg24
g83
sg65
g193
ssbsS'pre_dispatch'
p233
S'2*n_jobs'
p234
sS'grid_scores_'
p235
(lp236
g0
(csklearn.grid_search
_CVScoreTuple
p237
c__builtin__
tuple
p238
((dp239
S'vect__ngram_range'
p240
g144
sS'clf__alpha'
p241
F0.0
sg90
(g169
S'\xe4\x14\x9e\x19\xa3g\xe0?'
p242
tp243
Rp244
g160
(g161
(I0
tp245
g163
tp246
Rp247
(I1
(I3
tp248
g169
I00
S'4\xef\x9f\x02\x97g\xe0?8 ,&\xa9g\xe0?8 ,&\xa9g\xe0?'
p249
tp250
btp251
tp252
Rp253
ag0
(g237
g238
((dp254
S'vect__ngram_range'
p255
(I1
I2
tp256
sS'clf__alpha'
p257
F0.0
sg90
(g169
S'\xe4\x14\x9e\x19\xa3g\xe0?'
p258
tp259
Rp260
g160
(g161
(I0
tp261
g163
tp262
Rp263
(I1
(I3
tp264
g169
I00
S'4\xef\x9f\x02\x97g\xe0?8 ,&\xa9g\xe0?8 ,&\xa9g\xe0?'
p265
tp266
btp267
tp268
Rp269
ag0
(g237
g238
((dp270
S'vect__ngram_range'
p271
(I1
I3
tp272
sS'clf__alpha'
p273
F0.0
sg90
(g169
S'\xe4\x14\x9e\x19\xa3g\xe0?'
p274
tp275
Rp276
g160
(g161
(I0
tp277
g163
tp278
Rp279
(I1
(I3
tp280
g169
I00
S'4\xef\x9f\x02\x97g\xe0?8 ,&\xa9g\xe0?8 ,&\xa9g\xe0?'
p281
tp282
btp283
tp284
Rp285
ag0
(g237
g238
((dp286
S'vect__ngram_range'
p287
(I2
I2
tp288
sS'clf__alpha'
p289
F0.0
sg90
(g169
S'\xe4\x14\x9e\x19\xa3g\xe0?'
p290
tp291
Rp292
g160
(g161
(I0
tp293
g163
tp294
Rp295
(I1
(I3
tp296
g169
I00
S'4\xef\x9f\x02\x97g\xe0?8 ,&\xa9g\xe0?8 ,&\xa9g\xe0?'
p297
tp298
btp299
tp300
Rp301
ag0
(g237
g238
((dp302
S'vect__ngram_range'
p303
(I2
I3
tp304
sS'clf__alpha'
p305
F0.0
sg90
(g169
S'\xe4\x14\x9e\x19\xa3g\xe0?'
p306
tp307
Rp308
g160
(g161
(I0
tp309
g163
tp310
Rp311
(I1
(I3
tp312
g169
I00
S'4\xef\x9f\x02\x97g\xe0?8 ,&\xa9g\xe0?8 ,&\xa9g\xe0?'
p313
tp314
btp315
tp316
Rp317
ag0
(g237
g238
((dp318
S'vect__ngram_range'
p319
(I3
I3
tp320
sS'clf__alpha'
p321
F0.0
sg90
(g169
S'\xe4\x14\x9e\x19\xa3g\xe0?'
p322
tp323
Rp324
g160
(g161
(I0
tp325
g163
tp326
Rp327
(I1
(I3
tp328
g169
I00
S'4\xef\x9f\x02\x97g\xe0?8 ,&\xa9g\xe0?8 ,&\xa9g\xe0?'
p329
tp330
btp331
tp332
Rp333
ag0
(g237
g238
((dp334
S'vect__ngram_range'
p335
(I1
I1
tp336
sS'clf__alpha'
p337
F0.25
sg90
(g169
S'\xe4\x14\x9e\x19\xa3g\xe0?'
p338
tp339
Rp340
g160
(g161
(I0
tp341
g163
tp342
Rp343
(I1
(I3
tp344
g169
I00
S'4\xef\x9f\x02\x97g\xe0?8 ,&\xa9g\xe0?8 ,&\xa9g\xe0?'
p345
tp346
btp347
tp348
Rp349
ag0
(g237
g238
((dp350
S'vect__ngram_range'
p351
(I1
I2
tp352
sS'clf__alpha'
p353
F0.25
sg90
(g169
S'\xe4\x14\x9e\x19\xa3g\xe0?'
p354
tp355
Rp356
g160
(g161
(I0
tp357
g163
tp358
Rp359
(I1
(I3
tp360
g169
I00
S'4\xef\x9f\x02\x97g\xe0?8 ,&\xa9g\xe0?8 ,&\xa9g\xe0?'
p361
tp362
btp363
tp364
Rp365
ag0
(g237
g238
((dp366
S'vect__ngram_range'
p367
(I1
I3
tp368
sS'clf__alpha'
p369
F0.25
sg90
(g169
S'\xe4\x14\x9e\x19\xa3g\xe0?'
p370
tp371
Rp372
g160
(g161
(I0
tp373
g163
tp374
Rp375
(I1
(I3
tp376
g169
I00
S'4\xef\x9f\x02\x97g\xe0?8 ,&\xa9g\xe0?8 ,&\xa9g\xe0?'
p377
tp378
btp379
tp380
Rp381
ag0
(g237
g238
((dp382
S'vect__ngram_range'
p383
(I2
I2
tp384
sS'clf__alpha'
p385
F0.25
sg90
(g169
S'\xe4\x14\x9e\x19\xa3g\xe0?'
p386
tp387
Rp388
g160
(g161
(I0
tp389
g163
tp390
Rp391
(I1
(I3
tp392
g169
I00
S'4\xef\x9f\x02\x97g\xe0?8 ,&\xa9g\xe0?8 ,&\xa9g\xe0?'
p393
tp394
btp395
tp396
Rp397
ag0
(g237
g238
((dp398
S'vect__ngram_range'
p399
(I2
I3
tp400
sS'clf__alpha'
p401
F0.25
sg90
(g169
S'\xe4\x14\x9e\x19\xa3g\xe0?'
p402
tp403
Rp404
g160
(g161
(I0
tp405
g163
tp406
Rp407
(I1
(I3
tp408
g169
I00
S'4\xef\x9f\x02\x97g\xe0?8 ,&\xa9g\xe0?8 ,&\xa9g\xe0?'
p409
tp410
btp411
tp412
Rp413
ag0
(g237
g238
((dp414
S'vect__ngram_range'
p415
(I3
I3
tp416
sS'clf__alpha'
p417
F0.25
sg90
(g169
S'\xe4\x14\x9e\x19\xa3g\xe0?'
p418
tp419
Rp420
g160
(g161
(I0
tp421
g163
tp422
Rp423
(I1
(I3
tp424
g169
I00
S'4\xef\x9f\x02\x97g\xe0?8 ,&\xa9g\xe0?8 ,&\xa9g\xe0?'
p425
tp426
btp427
tp428
Rp429
ag0
(g237
g238
((dp430
S'vect__ngram_range'
p431
(I1
I1
tp432
sS'clf__alpha'
p433
F0.5
sg90
(g169
S'\xe4\x14\x9e\x19\xa3g\xe0?'
p434
tp435
Rp436
g160
(g161
(I0
tp437
g163
tp438
Rp439
(I1
(I3
tp440
g169
I00
S'4\xef\x9f\x02\x97g\xe0?8 ,&\xa9g\xe0?8 ,&\xa9g\xe0?'
p441
tp442
btp443
tp444
Rp445
ag0
(g237
g238
((dp446
S'vect__ngram_range'
p447
(I1
I2
tp448
sS'clf__alpha'
p449
F0.5
sg90
(g169
S'\xe4\x14\x9e\x19\xa3g\xe0?'
p450
tp451
Rp452
g160
(g161
(I0
tp453
g163
tp454
Rp455
(I1
(I3
tp456
g169
I00
S'4\xef\x9f\x02\x97g\xe0?8 ,&\xa9g\xe0?8 ,&\xa9g\xe0?'
p457
tp458
btp459
tp460
Rp461
ag0
(g237
g238
((dp462
S'vect__ngram_range'
p463
(I1
I3
tp464
sS'clf__alpha'
p465
F0.5
sg90
(g169
S'\xe4\x14\x9e\x19\xa3g\xe0?'
p466
tp467
Rp468
g160
(g161
(I0
tp469
g163
tp470
Rp471
(I1
(I3
tp472
g169
I00
S'4\xef\x9f\x02\x97g\xe0?8 ,&\xa9g\xe0?8 ,&\xa9g\xe0?'
p473
tp474
btp475
tp476
Rp477
ag0
(g237
g238
((dp478
S'vect__ngram_range'
p479
(I2
I2
tp480
sS'clf__alpha'
p481
F0.5
sg90
(g169
S'\xe4\x14\x9e\x19\xa3g\xe0?'
p482
tp483
Rp484
g160
(g161
(I0
tp485
g163
tp486
Rp487
(I1
(I3
tp488
g169
I00
S'4\xef\x9f\x02\x97g\xe0?8 ,&\xa9g\xe0?8 ,&\xa9g\xe0?'
p489
tp490
btp491
tp492
Rp493
ag0
(g237
g238
((dp494
S'vect__ngram_range'
p495
(I2
I3
tp496
sS'clf__alpha'
p497
F0.5
sg90
(g169
S'\xe4\x14\x9e\x19\xa3g\xe0?'
p498
tp499
Rp500
g160
(g161
(I0
tp501
g163
tp502
Rp503
(I1
(I3
tp504
g169
I00
S'4\xef\x9f\x02\x97g\xe0?8 ,&\xa9g\xe0?8 ,&\xa9g\xe0?'
p505
tp506
btp507
tp508
Rp509
ag0
(g237
g238
((dp510
S'vect__ngram_range'
p511
(I3
I3
tp512
sS'clf__alpha'
p513
F0.5
sg90
(g169
S'\xe4\x14\x9e\x19\xa3g\xe0?'
p514
tp515
Rp516
g160
(g161
(I0
tp517
g163
tp518
Rp519
(I1
(I3
tp520
g169
I00
S'4\xef\x9f\x02\x97g\xe0?8 ,&\xa9g\xe0?8 ,&\xa9g\xe0?'
p521
tp522
btp523
tp524
Rp525
ag0
(g237
g238
((dp526
S'vect__ngram_range'
p527
(I1
I1
tp528
sS'clf__alpha'
p529
F0.75
sg90
(g169
S'\xe4\x14\x9e\x19\xa3g\xe0?'
p530
tp531
Rp532
g160
(g161
(I0
tp533
g163
tp534
Rp535
(I1
(I3
tp536
g169
I00
S'4\xef\x9f\x02\x97g\xe0?8 ,&\xa9g\xe0?8 ,&\xa9g\xe0?'
p537
tp538
btp539
tp540
Rp541
ag0
(g237
g238
((dp542
S'vect__ngram_range'
p543
(I1
I2
tp544
sS'clf__alpha'
p545
F0.75
sg90
(g169
S'\xe4\x14\x9e\x19\xa3g\xe0?'
p546
tp547
Rp548
g160
(g161
(I0
tp549
g163
tp550
Rp551
(I1
(I3
tp552
g169
I00
S'4\xef\x9f\x02\x97g\xe0?8 ,&\xa9g\xe0?8 ,&\xa9g\xe0?'
p553
tp554
btp555
tp556
Rp557
ag0
(g237
g238
((dp558
S'vect__ngram_range'
p559
(I1
I3
tp560
sS'clf__alpha'
p561
F0.75
sg90
(g169
S'\xe4\x14\x9e\x19\xa3g\xe0?'
p562
tp563
Rp564
g160
(g161
(I0
tp565
g163
tp566
Rp567
(I1
(I3
tp568
g169
I00
S'4\xef\x9f\x02\x97g\xe0?8 ,&\xa9g\xe0?8 ,&\xa9g\xe0?'
p569
tp570
btp571
tp572
Rp573
ag0
(g237
g238
((dp574
S'vect__ngram_range'
p575
(I2
I2
tp576
sS'clf__alpha'
p577
F0.75
sg90
(g169
S'\xe4\x14\x9e\x19\xa3g\xe0?'
p578
tp579
Rp580
g160
(g161
(I0
tp581
g163
tp582
Rp583
(I1
(I3
tp584
g169
I00
S'4\xef\x9f\x02\x97g\xe0?8 ,&\xa9g\xe0?8 ,&\xa9g\xe0?'
p585
tp586
btp587
tp588
Rp589
ag0
(g237
g238
((dp590
S'vect__ngram_range'
p591
(I2
I3
tp592
sS'clf__alpha'
p593
F0.75
sg90
(g169
S'\xe4\x14\x9e\x19\xa3g\xe0?'
p594
tp595
Rp596
g160
(g161
(I0
tp597
g163
tp598
Rp599
(I1
(I3
tp600
g169
I00
S'4\xef\x9f\x02\x97g\xe0?8 ,&\xa9g\xe0?8 ,&\xa9g\xe0?'
p601
tp602
btp603
tp604
Rp605
ag0
(g237
g238
((dp606
S'vect__ngram_range'
p607
(I3
I3
tp608
sS'clf__alpha'
p609
F0.75
sg90
(g169
S'\xe4\x14\x9e\x19\xa3g\xe0?'
p610
tp611
Rp612
g160
(g161
(I0
tp613
g163
tp614
Rp615
(I1
(I3
tp616
g169
I00
S'4\xef\x9f\x02\x97g\xe0?8 ,&\xa9g\xe0?8 ,&\xa9g\xe0?'
p617
tp618
btp619
tp620
Rp621
ag0
(g237
g238
((dp622
S'vect__ngram_range'
p623
(I1
I1
tp624
sS'clf__alpha'
p625
F1.0
sg90
(g169
S'\xe4\x14\x9e\x19\xa3g\xe0?'
p626
tp627
Rp628
g160
(g161
(I0
tp629
g163
tp630
Rp631
(I1
(I3
tp632
g169
I00
S'4\xef\x9f\x02\x97g\xe0?8 ,&\xa9g\xe0?8 ,&\xa9g\xe0?'
p633
tp634
btp635
tp636
Rp637
ag0
(g237
g238
((dp638
S'vect__ngram_range'
p639
(I1
I2
tp640
sS'clf__alpha'
p641
F1.0
sg90
(g169
S'\xe4\x14\x9e\x19\xa3g\xe0?'
p642
tp643
Rp644
g160
(g161
(I0
tp645
g163
tp646
Rp647
(I1
(I3
tp648
g169
I00
S'4\xef\x9f\x02\x97g\xe0?8 ,&\xa9g\xe0?8 ,&\xa9g\xe0?'
p649
tp650
btp651
tp652
Rp653
ag0
(g237
g238
((dp654
S'vect__ngram_range'
p655
(I1
I3
tp656
sS'clf__alpha'
p657
F1.0
sg90
(g169
S'\xe4\x14\x9e\x19\xa3g\xe0?'
p658
tp659
Rp660
g160
(g161
(I0
tp661
g163
tp662
Rp663
(I1
(I3
tp664
g169
I00
S'4\xef\x9f\x02\x97g\xe0?8 ,&\xa9g\xe0?8 ,&\xa9g\xe0?'
p665
tp666
btp667
tp668
Rp669
ag0
(g237
g238
((dp670
S'vect__ngram_range'
p671
(I2
I2
tp672
sS'clf__alpha'
p673
F1.0
sg90
(g169
S'\xe4\x14\x9e\x19\xa3g\xe0?'
p674
tp675
Rp676
g160
(g161
(I0
tp677
g163
tp678
Rp679
(I1
(I3
tp680
g169
I00
S'4\xef\x9f\x02\x97g\xe0?8 ,&\xa9g\xe0?8 ,&\xa9g\xe0?'
p681
tp682
btp683
tp684
Rp685
ag0
(g237
g238
((dp686
S'vect__ngram_range'
p687
(I2
I3
tp688
sS'clf__alpha'
p689
F1.0
sg90
(g169
S'\xe4\x14\x9e\x19\xa3g\xe0?'
p690
tp691
Rp692
g160
(g161
(I0
tp693
g163
tp694
Rp695
(I1
(I3
tp696
g169
I00
S'4\xef\x9f\x02\x97g\xe0?8 ,&\xa9g\xe0?8 ,&\xa9g\xe0?'
p697
tp698
btp699
tp700
Rp701
ag0
(g237
g238
((dp702
S'vect__ngram_range'
p703
(I3
I3
tp704
sS'clf__alpha'
p705
F1.0
sg90
(g169
S'\xe4\x14\x9e\x19\xa3g\xe0?'
p706
tp707
Rp708
g160
(g161
(I0
tp709
g163
tp710
Rp711
(I1
(I3
tp712
g169
I00
S'4\xef\x9f\x02\x97g\xe0?8 ,&\xa9g\xe0?8 ,&\xa9g\xe0?'
p713
tp714
btp715
tp716
Rp717
asS'best_params_'
p718
g239
sS'best_score_'
p719
g244
sS'param_grid'
p720
(dp721
S'vect__ngram_range'
p722
(lp723
(I1
I1
tp724
a(I1
I2
tp725
a(I1
I3
tp726
a(I2
I2
tp727
a(I2
I3
tp728
a(I3
I3
tp729
asS'clf__alpha'
p730
(lp731
F0.0
aF0.25
aF0.5
aF0.75
aF1.0
assS'score_func'
p732
Nsb.