ccopy_reg
_reconstructor
p0
(csklearn.grid_search
GridSearchCV
p1
c__builtin__
object
p2
Ntp3
Rp4
(dp5
S'scoring'
p6
NsS'n_jobs'
p7
I4
sS'verbose'
p8
I0
sS'fit_params'
p9
(dp10
sS'loss_func'
p11
NsS'refit'
p12
I01
sS'scorer_'
p13
csklearn.metrics.scorer
_passthrough_scorer
p14
sS'iid'
p15
I01
sS'estimator'
p16
g0
(csklearn.pipeline
Pipeline
p17
g2
Ntp18
Rp19
(dp20
S'steps'
p21
(lp22
(S'vect'
p23
g0
(csklearn.feature_extraction.text
CountVectorizer
p24
g2
Ntp25
Rp26
(dp27
S'decode_error'
p28
Vstrict
p29
sS'lowercase'
p30
I01
sS'stop_words'
p31
NsS'vocabulary'
p32
NsS'tokenizer'
p33
NsS'encoding'
p34
Vutf-8
p35
sS'token_pattern'
p36
V(?u)\u005cb\u005cw\u005cw+\u005cb
p37
sS'max_df'
p38
F1.0
sS'analyzer'
p39
NsS'binary'
p40
I00
sS'ngram_range'
p41
(I1
I1
tp42
sS'preprocessor'
p43
NsS'min_df'
p44
I1
sS'max_features'
p45
NsS'input'
p46
Vcontent
p47
sS'dtype'
p48
cnumpy
int64
p49
sS'strip_accents'
p50
Nsbtp51
a(S'tfidf'
p52
g0
(csklearn.feature_extraction.text
TfidfTransformer
p53
g2
Ntp54
Rp55
(dp56
S'use_idf'
p57
I01
sS'smooth_idf'
p58
I01
sS'sublinear_tf'
p59
I00
sS'norm'
p60
Vl2
p61
sbtp62
a(S'clf'
p63
g0
(csklearn.naive_bayes
MultinomialNB
p64
g2
Ntp65
Rp66
(dp67
S'alpha'
p68
F1.0
sS'fit_prior'
p69
I01
sS'class_prior'
p70
(lp71
F0.598
aF0.402
asbtp72
asS'named_steps'
p73
(dp74
g52
g55
sg23
g26
sg63
g66
ssbsS'cv'
p75
NsS'best_estimator_'
p76
g0
(g17
g2
Ntp77
Rp78
(dp79
g21
(lp80
(g23
g0
(g24
g2
Ntp81
Rp82
(dp83
g28
g29
sg30
I01
sg31
Nsg32
Nsg33
Nsg34
g35
sg36
V(?u)\u005cb\u005cw\u005cw+\u005cb
p84
sg38
F1.0
sS'fixed_vocabulary_'
p85
I00
sg39
NsS'vocabulary_'
p86
(dp87
S'ADV'
p88
cnumpy.core.multiarray
scalar
p89
(cnumpy
dtype
p90
(S'i8'
p91
I0
I1
tp92
Rp93
(I3
S'<'
p94
NNNI-1
I-1
I0
tp95
bS'\x03\x00\x00\x00\x00\x00\x00\x00'
p96
tp97
Rp98
sS'NOUN'
p99
g89
(g93
S'\x06\x00\x00\x00\x00\x00\x00\x00'
p100
tp101
Rp102
sS'ADP'
p103
g89
(g93
S'\x02\x00\x00\x00\x00\x00\x00\x00'
p104
tp105
Rp106
sS'PRON'
p107
g89
(g93
S'\x08\x00\x00\x00\x00\x00\x00\x00'
p108
tp109
Rp110
sS'DET'
p111
g89
(g93
S'\x05\x00\x00\x00\x00\x00\x00\x00'
p112
tp113
Rp114
sS'.'
p115
g89
(g93
S'\x00\x00\x00\x00\x00\x00\x00\x00'
p116
tp117
Rp118
sS'PRT'
p119
g89
(g93
S'\t\x00\x00\x00\x00\x00\x00\x00'
p120
tp121
Rp122
sS'NUM'
p123
g89
(g93
S'\x07\x00\x00\x00\x00\x00\x00\x00'
p124
tp125
Rp126
sS'X'
p127
g89
(g93
S'\x0b\x00\x00\x00\x00\x00\x00\x00'
p128
tp129
Rp130
sS'CONJ'
p131
g89
(g93
S'\x04\x00\x00\x00\x00\x00\x00\x00'
p132
tp133
Rp134
sS'ADJ'
p135
g89
(g93
S'\x01\x00\x00\x00\x00\x00\x00\x00'
p136
tp137
Rp138
sS'VERB'
p139
g89
(g93
S'\n\x00\x00\x00\x00\x00\x00\x00'
p140
tp141
Rp142
ssg40
I00
sg41
(I1
I1
tp143
sg43
Nsg44
I1
sg45
Nsg46
g47
sg48
g49
sS'stop_words_'
p144
c__builtin__
set
p145
((lp146
tp147
Rp148
sg50
Nsbtp149
a(g52
g0
(g53
g2
Ntp150
Rp151
(dp152
g57
I01
sg58
I01
sg59
I00
sg60
g61
sS'_idf_diag'
p153
g0
(cscipy.sparse.dia
dia_matrix
p154
g2
Ntp155
Rp156
(dp157
S'data'
p158
cnumpy.core.multiarray
_reconstruct
p159
(cnumpy
ndarray
p160
(I0
tp161
S'b'
p162
tp163
Rp164
(I1
(I1
I12
tp165
g90
(S'f8'
p166
I0
I1
tp167
Rp168
(I3
S'<'
p169
NNNI-1
I-1
I0
tp170
bI00
S"\x00\x00\x00\x00\x00\x00\xf0?\x96\t'\xe5\x17t\xf4?\xa5<t\xae\x9f\xd0\xf1?X\x92\xb3\xd1}\x88\xf4?J\xa6\x84\xbf\xf7U\xf9?\xccO(\xa9\xeb?\xf2?\x8bLb\xc2\xfb\x1d\xf0?\xa8\xf3\xc5\xc9\x87\xfd\x07@\xbd\x19\x0e\xde*\x14\xf3?\x13\xeeR\xae\xd3p\xf9?@@\xd0y\x00.\xf0?\x04\xfa\x8f:\xa2\x8d\x15@"
p171
tp172
bsS'maxprint'
p173
I50
sS'_shape'
p174
(I12
I12
tp175
sS'offsets'
p176
g159
(g160
(I0
tp177
g162
tp178
Rp179
(I1
(I1
tp180
g90
(S'i4'
p181
I0
I1
tp182
Rp183
(I3
S'<'
p184
NNNI-1
I-1
I0
tp185
bI00
S'\x00\x00\x00\x00'
p186
tp187
bsS'format'
p188
S'dia'
p189
sbsbtp190
a(g63
g0
(g64
g2
Ntp191
Rp192
(dp193
S'class_log_prior_'
p194
g159
(g160
(I0
tp195
g162
tp196
Rp197
(I1
(I2
tp198
g168
I00
S'\x0f\xc2x)\tt\xe0\xbf\x923\xebNe)\xed\xbf'
p199
tp200
bsS'feature_log_prob_'
p201
g159
(g160
(I0
tp202
g162
tp203
Rp204
(I1
(I2
I12
tp205
g168
I00
S'\xca76z\x9e\xd3\x02\xc0\xfc\xd12(\tY\x05\xc0\x9cn\xdf\xe2\x12\xbd\x02\xc0\x9a\xc6,\x1cD\xe3\x04\xc0\x9c\xeb\xfd\xdc\xf2R\t\xc0&l\xde\xe6P(\x03\xc0lR\x88\xe9\x03\x18\xfb\xbfc\xf6\x07\x0bW\xc5\x10\xc0\xda\xbc\xf2,\xa8\x98\x01\xc0\xd8^\xe1\xc1u5\x08\xc0\xe0\x94z\xfa\xf8\x1c\xfc\xbf\xa9\x801\xa5\ny\x19\xc0B;\xcb\xa05\xf7\x02\xc0\x16M\x1b\xef\xc2\xf9\x04\xc0\x18\xf6\xd7\xc0\xd1\x10\x02\xc0,\x03^\x84\x1c/\x05\xc0\x0e@\x11K\xcap\t\xc0\xd6\x7f\x15Y\xb6\xac\x02\xc0\xe4\xc8w\x1b\xdb<\xfa\xbfO\xad\xf2=zv\x10\xc0x\xe1\xdb\x94=\xc3\x02\xc0"\xcb\x9c\xab*\xab\x08\xc0h\xd7\x06 K\xb3\xfc\xbf\x8bb\xa0\xfb\xd7\x1e\x19\xc0'
p206
tp207
bsS'feature_count_'
p208
g159
(g160
(I0
tp209
g162
tp210
Rp211
(I1
(I2
I12
tp212
g168
I00
S',\xfc\xbb\\\xcf\x11\x91@\x06\x9e\xddH\'\xe9\x88@_\x9b\xc27.B\x91@\x13\xd2\x05z\x9eb\x8a@\xd0t\xa3\xb0\xe7N~@\x8a\xaa\xa9=\xc7`\x90@\xa6\xde2%2\x83\xa0@\xadQ\x84\x16n\xb3e@\x17\x02\xf1\x11F\xe8\x93@\x84\xf8*\x1f\xc0k\x81@o\x10\xe7E\x8f\xfc\x9e@$Iu&\xaa\xb63@\xf1"\x8f\xca\x95\xc5\x8f@h>G\xdc\x8d\xb6\x88@\x9d\x1a\x84G\x03\xc7\x91@\x07_s|\xe0\x13\x88@\x9b\xfa\x0c\xa1,I|@YM\x9b\xaery\x90@)\x0b*\x00\r\x7f\xa0@~\xf8\xf9\xea\xff1f@\x9b\xd3\xcfKOK\x90@d|\x8e\xde\xbd&\x7f@\xdf\\\x1b\x0f8I\x9c@\x96~\xb83\x19c4@'
p213
tp214
bsS'classes_'
p215
g159
(g160
(I0
tp216
g162
tp217
Rp218
(I1
(I2
tp219
g90
(S'i8'
p220
I0
I1
tp221
Rp222
(I3
S'<'
p223
NNNI-1
I-1
I0
tp224
bI00
S'\x00\x00\x00\x00\x00\x00\x00\x00\x01\x00\x00\x00\x00\x00\x00\x00'
p225
tp226
bsg69
I01
sg70
(lp227
F0.598
aF0.402
asS'class_count_'
p228
g159
(g160
(I0
tp229
g162
tp230
Rp231
(I1
(I2
tp232
g168
I00
S'\x00\x00\x00\x00\x00\x92\xb1@\x00\x00\x00\x00\x00\xb4\xb0@'
p233
tp234
bsg68
F0.0
sbtp235
asg73
(dp236
g52
g151
sg23
g82
sg63
g192
ssbsS'pre_dispatch'
p237
S'2*n_jobs'
p238
sS'grid_scores_'
p239
(lp240
g0
(csklearn.grid_search
_CVScoreTuple
p241
c__builtin__
tuple
p242
((dp243
S'vect__ngram_range'
p244
g143
sS'clf__alpha'
p245
F0.0
sg89
(g90
(S'f8'
p246
I0
I1
tp247
Rp248
(I3
S'<'
p249
NNNI-1
I-1
I0
tp250
bS'\xe4\x14\x9e\x19\xa3g\xe0?'
p251
tp252
Rp253
g159
(g160
(I0
tp254
g162
tp255
Rp256
(I1
(I3
tp257
g168
I00
S'4\xef\x9f\x02\x97g\xe0?8 ,&\xa9g\xe0?8 ,&\xa9g\xe0?'
p258
tp259
btp260
tp261
Rp262
ag0
(g241
g242
((dp263
S'vect__ngram_range'
p264
(I1
I2
tp265
sS'clf__alpha'
p266
F0.0
sg89
(g248
S'\xe4\x14\x9e\x19\xa3g\xe0?'
p267
tp268
Rp269
g159
(g160
(I0
tp270
g162
tp271
Rp272
(I1
(I3
tp273
g168
I00
S'4\xef\x9f\x02\x97g\xe0?8 ,&\xa9g\xe0?8 ,&\xa9g\xe0?'
p274
tp275
btp276
tp277
Rp278
ag0
(g241
g242
((dp279
S'vect__ngram_range'
p280
(I1
I3
tp281
sS'clf__alpha'
p282
F0.0
sg89
(g248
S'\xe4\x14\x9e\x19\xa3g\xe0?'
p283
tp284
Rp285
g159
(g160
(I0
tp286
g162
tp287
Rp288
(I1
(I3
tp289
g168
I00
S'4\xef\x9f\x02\x97g\xe0?8 ,&\xa9g\xe0?8 ,&\xa9g\xe0?'
p290
tp291
btp292
tp293
Rp294
ag0
(g241
g242
((dp295
S'vect__ngram_range'
p296
(I2
I2
tp297
sS'clf__alpha'
p298
F0.0
sg89
(g248
S'\xe4\x14\x9e\x19\xa3g\xe0?'
p299
tp300
Rp301
g159
(g160
(I0
tp302
g162
tp303
Rp304
(I1
(I3
tp305
g168
I00
S'4\xef\x9f\x02\x97g\xe0?8 ,&\xa9g\xe0?8 ,&\xa9g\xe0?'
p306
tp307
btp308
tp309
Rp310
ag0
(g241
g242
((dp311
S'vect__ngram_range'
p312
(I2
I3
tp313
sS'clf__alpha'
p314
F0.0
sg89
(g248
S'\xe4\x14\x9e\x19\xa3g\xe0?'
p315
tp316
Rp317
g159
(g160
(I0
tp318
g162
tp319
Rp320
(I1
(I3
tp321
g168
I00
S'4\xef\x9f\x02\x97g\xe0?8 ,&\xa9g\xe0?8 ,&\xa9g\xe0?'
p322
tp323
btp324
tp325
Rp326
ag0
(g241
g242
((dp327
S'vect__ngram_range'
p328
(I3
I3
tp329
sS'clf__alpha'
p330
F0.0
sg89
(g248
S'\xe4\x14\x9e\x19\xa3g\xe0?'
p331
tp332
Rp333
g159
(g160
(I0
tp334
g162
tp335
Rp336
(I1
(I3
tp337
g168
I00
S'4\xef\x9f\x02\x97g\xe0?8 ,&\xa9g\xe0?8 ,&\xa9g\xe0?'
p338
tp339
btp340
tp341
Rp342
ag0
(g241
g242
((dp343
S'vect__ngram_range'
p344
(I1
I1
tp345
sS'clf__alpha'
p346
F0.25
sg89
(g248
S'\xe4\x14\x9e\x19\xa3g\xe0?'
p347
tp348
Rp349
g159
(g160
(I0
tp350
g162
tp351
Rp352
(I1
(I3
tp353
g168
I00
S'4\xef\x9f\x02\x97g\xe0?8 ,&\xa9g\xe0?8 ,&\xa9g\xe0?'
p354
tp355
btp356
tp357
Rp358
ag0
(g241
g242
((dp359
S'vect__ngram_range'
p360
(I1
I2
tp361
sS'clf__alpha'
p362
F0.25
sg89
(g248
S'\xe4\x14\x9e\x19\xa3g\xe0?'
p363
tp364
Rp365
g159
(g160
(I0
tp366
g162
tp367
Rp368
(I1
(I3
tp369
g168
I00
S'4\xef\x9f\x02\x97g\xe0?8 ,&\xa9g\xe0?8 ,&\xa9g\xe0?'
p370
tp371
btp372
tp373
Rp374
ag0
(g241
g242
((dp375
S'vect__ngram_range'
p376
(I1
I3
tp377
sS'clf__alpha'
p378
F0.25
sg89
(g248
S'\xe4\x14\x9e\x19\xa3g\xe0?'
p379
tp380
Rp381
g159
(g160
(I0
tp382
g162
tp383
Rp384
(I1
(I3
tp385
g168
I00
S'4\xef\x9f\x02\x97g\xe0?8 ,&\xa9g\xe0?8 ,&\xa9g\xe0?'
p386
tp387
btp388
tp389
Rp390
ag0
(g241
g242
((dp391
S'vect__ngram_range'
p392
(I2
I2
tp393
sS'clf__alpha'
p394
F0.25
sg89
(g248
S'\xe4\x14\x9e\x19\xa3g\xe0?'
p395
tp396
Rp397
g159
(g160
(I0
tp398
g162
tp399
Rp400
(I1
(I3
tp401
g168
I00
S'4\xef\x9f\x02\x97g\xe0?8 ,&\xa9g\xe0?8 ,&\xa9g\xe0?'
p402
tp403
btp404
tp405
Rp406
ag0
(g241
g242
((dp407
S'vect__ngram_range'
p408
(I2
I3
tp409
sS'clf__alpha'
p410
F0.25
sg89
(g248
S'\xe4\x14\x9e\x19\xa3g\xe0?'
p411
tp412
Rp413
g159
(g160
(I0
tp414
g162
tp415
Rp416
(I1
(I3
tp417
g168
I00
S'4\xef\x9f\x02\x97g\xe0?8 ,&\xa9g\xe0?8 ,&\xa9g\xe0?'
p418
tp419
btp420
tp421
Rp422
ag0
(g241
g242
((dp423
S'vect__ngram_range'
p424
(I3
I3
tp425
sS'clf__alpha'
p426
F0.25
sg89
(g248
S'\xe4\x14\x9e\x19\xa3g\xe0?'
p427
tp428
Rp429
g159
(g160
(I0
tp430
g162
tp431
Rp432
(I1
(I3
tp433
g168
I00
S'4\xef\x9f\x02\x97g\xe0?8 ,&\xa9g\xe0?8 ,&\xa9g\xe0?'
p434
tp435
btp436
tp437
Rp438
ag0
(g241
g242
((dp439
S'vect__ngram_range'
p440
(I1
I1
tp441
sS'clf__alpha'
p442
F0.5
sg89
(g248
S'\xe4\x14\x9e\x19\xa3g\xe0?'
p443
tp444
Rp445
g159
(g160
(I0
tp446
g162
tp447
Rp448
(I1
(I3
tp449
g168
I00
S'4\xef\x9f\x02\x97g\xe0?8 ,&\xa9g\xe0?8 ,&\xa9g\xe0?'
p450
tp451
btp452
tp453
Rp454
ag0
(g241
g242
((dp455
S'vect__ngram_range'
p456
(I1
I2
tp457
sS'clf__alpha'
p458
F0.5
sg89
(g248
S'\xe4\x14\x9e\x19\xa3g\xe0?'
p459
tp460
Rp461
g159
(g160
(I0
tp462
g162
tp463
Rp464
(I1
(I3
tp465
g168
I00
S'4\xef\x9f\x02\x97g\xe0?8 ,&\xa9g\xe0?8 ,&\xa9g\xe0?'
p466
tp467
btp468
tp469
Rp470
ag0
(g241
g242
((dp471
S'vect__ngram_range'
p472
(I1
I3
tp473
sS'clf__alpha'
p474
F0.5
sg89
(g248
S'\xe4\x14\x9e\x19\xa3g\xe0?'
p475
tp476
Rp477
g159
(g160
(I0
tp478
g162
tp479
Rp480
(I1
(I3
tp481
g168
I00
S'4\xef\x9f\x02\x97g\xe0?8 ,&\xa9g\xe0?8 ,&\xa9g\xe0?'
p482
tp483
btp484
tp485
Rp486
ag0
(g241
g242
((dp487
S'vect__ngram_range'
p488
(I2
I2
tp489
sS'clf__alpha'
p490
F0.5
sg89
(g248
S'\xe4\x14\x9e\x19\xa3g\xe0?'
p491
tp492
Rp493
g159
(g160
(I0
tp494
g162
tp495
Rp496
(I1
(I3
tp497
g168
I00
S'4\xef\x9f\x02\x97g\xe0?8 ,&\xa9g\xe0?8 ,&\xa9g\xe0?'
p498
tp499
btp500
tp501
Rp502
ag0
(g241
g242
((dp503
S'vect__ngram_range'
p504
(I2
I3
tp505
sS'clf__alpha'
p506
F0.5
sg89
(g248
S'\xe4\x14\x9e\x19\xa3g\xe0?'
p507
tp508
Rp509
g159
(g160
(I0
tp510
g162
tp511
Rp512
(I1
(I3
tp513
g168
I00
S'4\xef\x9f\x02\x97g\xe0?8 ,&\xa9g\xe0?8 ,&\xa9g\xe0?'
p514
tp515
btp516
tp517
Rp518
ag0
(g241
g242
((dp519
S'vect__ngram_range'
p520
(I3
I3
tp521
sS'clf__alpha'
p522
F0.5
sg89
(g248
S'\xe4\x14\x9e\x19\xa3g\xe0?'
p523
tp524
Rp525
g159
(g160
(I0
tp526
g162
tp527
Rp528
(I1
(I3
tp529
g168
I00
S'4\xef\x9f\x02\x97g\xe0?8 ,&\xa9g\xe0?8 ,&\xa9g\xe0?'
p530
tp531
btp532
tp533
Rp534
ag0
(g241
g242
((dp535
S'vect__ngram_range'
p536
(I1
I1
tp537
sS'clf__alpha'
p538
F0.75
sg89
(g248
S'\xe4\x14\x9e\x19\xa3g\xe0?'
p539
tp540
Rp541
g159
(g160
(I0
tp542
g162
tp543
Rp544
(I1
(I3
tp545
g168
I00
S'4\xef\x9f\x02\x97g\xe0?8 ,&\xa9g\xe0?8 ,&\xa9g\xe0?'
p546
tp547
btp548
tp549
Rp550
ag0
(g241
g242
((dp551
S'vect__ngram_range'
p552
(I1
I2
tp553
sS'clf__alpha'
p554
F0.75
sg89
(g248
S'\xe4\x14\x9e\x19\xa3g\xe0?'
p555
tp556
Rp557
g159
(g160
(I0
tp558
g162
tp559
Rp560
(I1
(I3
tp561
g168
I00
S'4\xef\x9f\x02\x97g\xe0?8 ,&\xa9g\xe0?8 ,&\xa9g\xe0?'
p562
tp563
btp564
tp565
Rp566
ag0
(g241
g242
((dp567
S'vect__ngram_range'
p568
(I1
I3
tp569
sS'clf__alpha'
p570
F0.75
sg89
(g248
S'\xe4\x14\x9e\x19\xa3g\xe0?'
p571
tp572
Rp573
g159
(g160
(I0
tp574
g162
tp575
Rp576
(I1
(I3
tp577
g168
I00
S'4\xef\x9f\x02\x97g\xe0?8 ,&\xa9g\xe0?8 ,&\xa9g\xe0?'
p578
tp579
btp580
tp581
Rp582
ag0
(g241
g242
((dp583
S'vect__ngram_range'
p584
(I2
I2
tp585
sS'clf__alpha'
p586
F0.75
sg89
(g248
S'\xe4\x14\x9e\x19\xa3g\xe0?'
p587
tp588
Rp589
g159
(g160
(I0
tp590
g162
tp591
Rp592
(I1
(I3
tp593
g168
I00
S'4\xef\x9f\x02\x97g\xe0?8 ,&\xa9g\xe0?8 ,&\xa9g\xe0?'
p594
tp595
btp596
tp597
Rp598
ag0
(g241
g242
((dp599
S'vect__ngram_range'
p600
(I2
I3
tp601
sS'clf__alpha'
p602
F0.75
sg89
(g248
S'\xe4\x14\x9e\x19\xa3g\xe0?'
p603
tp604
Rp605
g159
(g160
(I0
tp606
g162
tp607
Rp608
(I1
(I3
tp609
g168
I00
S'4\xef\x9f\x02\x97g\xe0?8 ,&\xa9g\xe0?8 ,&\xa9g\xe0?'
p610
tp611
btp612
tp613
Rp614
ag0
(g241
g242
((dp615
S'vect__ngram_range'
p616
(I3
I3
tp617
sS'clf__alpha'
p618
F0.75
sg89
(g248
S'\xe4\x14\x9e\x19\xa3g\xe0?'
p619
tp620
Rp621
g159
(g160
(I0
tp622
g162
tp623
Rp624
(I1
(I3
tp625
g168
I00
S'4\xef\x9f\x02\x97g\xe0?8 ,&\xa9g\xe0?8 ,&\xa9g\xe0?'
p626
tp627
btp628
tp629
Rp630
ag0
(g241
g242
((dp631
S'vect__ngram_range'
p632
(I1
I1
tp633
sS'clf__alpha'
p634
F1.0
sg89
(g248
S'\xe4\x14\x9e\x19\xa3g\xe0?'
p635
tp636
Rp637
g159
(g160
(I0
tp638
g162
tp639
Rp640
(I1
(I3
tp641
g168
I00
S'4\xef\x9f\x02\x97g\xe0?8 ,&\xa9g\xe0?8 ,&\xa9g\xe0?'
p642
tp643
btp644
tp645
Rp646
ag0
(g241
g242
((dp647
S'vect__ngram_range'
p648
(I1
I2
tp649
sS'clf__alpha'
p650
F1.0
sg89
(g248
S'\xe4\x14\x9e\x19\xa3g\xe0?'
p651
tp652
Rp653
g159
(g160
(I0
tp654
g162
tp655
Rp656
(I1
(I3
tp657
g168
I00
S'4\xef\x9f\x02\x97g\xe0?8 ,&\xa9g\xe0?8 ,&\xa9g\xe0?'
p658
tp659
btp660
tp661
Rp662
ag0
(g241
g242
((dp663
S'vect__ngram_range'
p664
(I1
I3
tp665
sS'clf__alpha'
p666
F1.0
sg89
(g248
S'\xe4\x14\x9e\x19\xa3g\xe0?'
p667
tp668
Rp669
g159
(g160
(I0
tp670
g162
tp671
Rp672
(I1
(I3
tp673
g168
I00
S'4\xef\x9f\x02\x97g\xe0?8 ,&\xa9g\xe0?8 ,&\xa9g\xe0?'
p674
tp675
btp676
tp677
Rp678
ag0
(g241
g242
((dp679
S'vect__ngram_range'
p680
(I2
I2
tp681
sS'clf__alpha'
p682
F1.0
sg89
(g248
S'\xe4\x14\x9e\x19\xa3g\xe0?'
p683
tp684
Rp685
g159
(g160
(I0
tp686
g162
tp687
Rp688
(I1
(I3
tp689
g168
I00
S'4\xef\x9f\x02\x97g\xe0?8 ,&\xa9g\xe0?8 ,&\xa9g\xe0?'
p690
tp691
btp692
tp693
Rp694
ag0
(g241
g242
((dp695
S'vect__ngram_range'
p696
(I2
I3
tp697
sS'clf__alpha'
p698
F1.0
sg89
(g248
S'\xe4\x14\x9e\x19\xa3g\xe0?'
p699
tp700
Rp701
g159
(g160
(I0
tp702
g162
tp703
Rp704
(I1
(I3
tp705
g168
I00
S'4\xef\x9f\x02\x97g\xe0?8 ,&\xa9g\xe0?8 ,&\xa9g\xe0?'
p706
tp707
btp708
tp709
Rp710
ag0
(g241
g242
((dp711
S'vect__ngram_range'
p712
(I3
I3
tp713
sS'clf__alpha'
p714
F1.0
sg89
(g248
S'\xe4\x14\x9e\x19\xa3g\xe0?'
p715
tp716
Rp717
g159
(g160
(I0
tp718
g162
tp719
Rp720
(I1
(I3
tp721
g168
I00
S'4\xef\x9f\x02\x97g\xe0?8 ,&\xa9g\xe0?8 ,&\xa9g\xe0?'
p722
tp723
btp724
tp725
Rp726
asS'best_params_'
p727
g243
sS'best_score_'
p728
g253
sS'param_grid'
p729
(dp730
S'vect__ngram_range'
p731
(lp732
(I1
I1
tp733
a(I1
I2
tp734
a(I1
I3
tp735
a(I2
I2
tp736
a(I2
I3
tp737
a(I3
I3
tp738
asS'clf__alpha'
p739
(lp740
F0.0
aF0.25
aF0.5
aF0.75
aF1.0
assS'score_func'
p741
Nsb.